; Function Attrs: mustprogress nofree nounwind willreturn memory(readwrite, inaccessiblemem: write) uwtable
define noundef double @_ZNK8QuantLib25AlphaFormLinearHyperbolicclEi(ptr nocapture noundef nonnull readonly align 8 dereferenceable(40) %this, i32 noundef %i) unnamed_addr #4 align 2 {
entry:
  %alpha_ = getelementptr inbounds nuw i8, ptr %this, i64 32
  %0 = load double, ptr %alpha_, align 8, !tbaa !20
  %times_ = getelementptr inbounds nuw i8, ptr %this, i64 8
  %conv = sext i32 %i to i64
  %1 = load ptr, ptr %times_, align 8, !tbaa !6
  %add.ptr.i = getelementptr inbounds nuw double, ptr %1, i64 %conv
  %2 = load double, ptr %add.ptr.i, align 8, !tbaa !19
  %mul = fmul double %0, %2
  %call2 = tail call double @atan(double noundef %mul) #9, !tbaa !22
  %sub = fadd double %call2, 0xBFF921FB54442D18
  %mul3 = fmul double %mul, %sub
  %add = fadd double %mul3, 1.000000e+00
  %call4 = tail call double @sqrt(double noundef %add) #9, !tbaa !22
  ret double %call4
}